; Function Attrs: mustprogress nounwind uwtable
define internal fastcc void @_ZZ14TestRingBuffervEN12PaddedVectorD2Ev(ptr noundef nonnull align 8 dereferenceable(4040) %this) unnamed_addr #1 align 2 personality ptr @__gxx_personality_v0 {
entry:
  %0 = load ptr, ptr %this, align 8
  %tobool.not.i.i = icmp eq ptr %0, null
  br i1 %tobool.not.i.i, label %_ZN5eastl6vectorIi15MallocAllocatorED2Ev.exit, label %if.then.i.i

if.then.i.i:                                      ; preds = %entry
  %mSecond.i.i.i.i.i = getelementptr inbounds i8, ptr %this, i64 24
  %mCapacityAllocator.i.i.i = getelementptr inbounds i8, ptr %this, i64 16
  %1 = load ptr, ptr %mCapacityAllocator.i.i.i, align 8
  %sub.ptr.lhs.cast.i.i = ptrtoint ptr %1 to i64
  %sub.ptr.rhs.cast.i.i = ptrtoint ptr %0 to i64
  %sub.ptr.sub.i.i = sub i64 %sub.ptr.lhs.cast.i.i, %sub.ptr.rhs.cast.i.i
  invoke void @_ZN15MallocAllocator10deallocateEPvm(ptr noundef nonnull align 8 dereferenceable(16) %mSecond.i.i.i.i.i, ptr noundef nonnull %0, i64 noundef %sub.ptr.sub.i.i)
          to label %_ZN5eastl6vectorIi15MallocAllocatorED2Ev.exit unwind label %terminate.lpad.i.i

terminate.lpad.i.i:                               ; preds = %if.then.i.i
  %2 = landingpad { ptr, i32 }
          catch ptr null
  %3 = extractvalue { ptr, i32 } %2, 0
  tail call void @__clang_call_terminate(ptr %3) #15
  unreachable

_ZN5eastl6vectorIi15MallocAllocatorED2Ev.exit:    ; preds = %entry, %if.then.i.i
  ret void
}